(lp1
((I587
I104
t(I606
I104
t(I606
I127
t(I587
I127
ttp2
a((I611
I131
t(I631
I131
t(I631
I151
t(I611
I151
ttp3
a((I349
I194
t(I373
I194
t(I373
I215
t(I349
I215
ttp4
a((I539
I174
t(I560
I174
t(I560
I196
t(I539
I196
ttp5
a.(lp1
I1
aI1
aI1
aI1
a.