(lp1
((I419
I196
t(I441
I196
t(I441
I218
t(I419
I218
ttp2
a((I609
I223
t(I628
I223
t(I628
I243
t(I609
I243
ttp3
a((I12
I237
t(I37
I237
t(I37
I258
t(I12
I258
ttp4
a((I599
I397
t(I618
I397
t(I618
I423
t(I599
I423
ttp5
a.(lp1
I1
aI1
aI1
aI1
a.