(lp1
((I493
I147
t(I514
I147
t(I514
I167
t(I493
I167
ttp2
a((I537
I147
t(I558
I147
t(I558
I167
t(I537
I167
ttp3
a((I493
I192
t(I511
I192
t(I511
I214
t(I493
I214
ttp4
a((I609
I196
t(I628
I196
t(I628
I213
t(I609
I213
ttp5
a.(lp1
I1
aI1
aI1
aI1
aI1
aI1
aI1
aI1
aI1
a.