(lp1
((I494
I73
t(I512
I73
t(I512
I90
t(I494
I90
ttp2
a((I516
I72
t(I536
I72
t(I536
I92
t(I516
I92
ttp3
a((I540
I74
t(I559
I74
t(I559
I94
t(I540
I94
ttp4
a.(lp1
I1
aI1
aI1
aI1
aI1
aI1
aI1
aI1
aI1
aI1
aI1
aI1
aI1
aI1
aI1
aI1
aI1
a.