(lp1
((I60
I325
t(I77
I325
t(I77
I343
t(I60
I343
ttp2
a((I81
I325
t(I99
I325
t(I99
I344
t(I81
I344
ttp3
a((I102
I324
t(I127
I324
t(I127
I345
t(I102
I345
ttp4
a((I495
I101
t(I511
I101
t(I511
I119
t(I495
I119
ttp5
a((I517
I103
t(I538
I103
t(I538
I122
t(I517
I122
ttp6
a((I542
I102
t(I557
I102
t(I557
I119
t(I542
I119
ttp7
a((I34
I371
t(I54
I371
t(I54
I391
t(I34
I391
ttp8
a((I33
I394
t(I52
I394
t(I52
I411
t(I33
I411
ttp9
a((I31
I415
t(I57
I415
t(I57
I439
t(I31
I439
ttp10
a.(lp1
I1
aI1
aI1
aI1
aI1
aI1
aI1
aI1
aI1
aI1
aI1
aI1
aI1
aI1
a.