(lp1
((I515
I79
t(I533
I79
t(I533
I95
t(I515
I95
ttp2
a((I538
I79
t(I556
I79
t(I556
I95
t(I538
I95
ttp3
a((I562
I79
t(I580
I79
t(I580
I95
t(I562
I95
ttp4
a((I585
I80
t(I603
I80
t(I603
I96
t(I585
I96
ttp5
a((I609
I80
t(I627
I80
t(I627
I96
t(I609
I96
ttp6
a((I514
I96
t(I532
I96
t(I532
I112
t(I514
I112
ttp7
a((I538
I97
t(I556
I97
t(I556
I113
t(I538
I113
ttp8
a((I561
I97
t(I579
I97
t(I579
I113
t(I561
I113
ttp9
a((I585
I97
t(I603
I97
t(I603
I113
t(I585
I113
ttp10
a((I608
I98
t(I626
I98
t(I626
I114
t(I608
I114
ttp11
a((I514
I114
t(I532
I114
t(I532
I130
t(I514
I130
ttp12
a((I537
I114
t(I555
I114
t(I555
I130
t(I537
I130
ttp13
a((I561
I115
t(I579
I115
t(I579
I131
t(I561
I131
ttp14
a((I584
I115
t(I602
I115
t(I602
I131
t(I584
I131
ttp15
a((I608
I115
t(I626
I115
t(I626
I131
t(I608
I131
ttp16
a((I513
I131
t(I531
I131
t(I531
I147
t(I513
I147
ttp17
a((I537
I132
t(I555
I132
t(I555
I148
t(I537
I148
ttp18
a((I560
I132
t(I578
I132
t(I578
I148
t(I560
I148
ttp19
a((I584
I133
t(I602
I133
t(I602
I149
t(I584
I149
ttp20
a((I607
I133
t(I625
I133
t(I625
I149
t(I607
I149
ttp21
a((I513
I149
t(I531
I149
t(I531
I165
t(I513
I165
ttp22
a((I536
I149
t(I554
I149
t(I554
I165
t(I536
I165
ttp23
a((I560
I150
t(I578
I150
t(I578
I166
t(I560
I166
ttp24
a((I584
I150
t(I602
I150
t(I602
I166
t(I584
I166
ttp25
a((I607
I151
t(I625
I151
t(I625
I167
t(I607
I167
ttp26
a((I513
I167
t(I531
I167
t(I531
I183
t(I513
I183
ttp27
a((I536
I167
t(I554
I167
t(I554
I183
t(I536
I183
ttp28
a((I560
I167
t(I578
I167
t(I578
I183
t(I560
I183
ttp29
a((I583
I168
t(I601
I168
t(I601
I184
t(I583
I184
ttp30
a((I607
I168
t(I625
I168
t(I625
I184
t(I607
I184
ttp31
a((I512
I184
t(I530
I184
t(I530
I200
t(I512
I200
ttp32
a((I536
I185
t(I554
I185
t(I554
I201
t(I536
I201
ttp33
a((I559
I185
t(I577
I185
t(I577
I201
t(I559
I201
ttp34
a((I583
I185
t(I601
I185
t(I601
I201
t(I583
I201
ttp35
a((I606
I186
t(I624
I186
t(I624
I202
t(I606
I202
ttp36
a((I512
I202
t(I530
I202
t(I530
I218
t(I512
I218
ttp37
a((I535
I202
t(I553
I202
t(I553
I218
t(I535
I218
ttp38
a((I559
I203
t(I577
I203
t(I577
I219
t(I559
I219
ttp39
a((I582
I203
t(I600
I203
t(I600
I219
t(I582
I219
ttp40
a((I606
I203
t(I624
I203
t(I624
I219
t(I606
I219
ttp41
a.(lp1
I1
aI1
aI1
aI1
aI1
aI1
aI1
aI1
aI1
aI1
aI1
aI1
aI1
aI1
aI1
aI1
aI1
aI1
aI1
aI1
aI1
aI1
aI1
aI1
aI1
aI1
aI1
aI1
aI1
aI1
aI1
aI1
aI1
aI1
aI1
aI1
aI1
aI1
aI1
aI1
a.