(lp1
((I14
I238
t(I32
I238
t(I32
I254
t(I14
I254
ttp2
a((I37
I238
t(I55
I238
t(I55
I254
t(I37
I254
ttp3
a((I61
I238
t(I79
I238
t(I79
I254
t(I61
I254
ttp4
a((I84
I239
t(I102
I239
t(I102
I255
t(I84
I255
ttp5
a((I108
I239
t(I126
I239
t(I126
I255
t(I108
I255
ttp6
a((I131
I240
t(I149
I240
t(I149
I256
t(I131
I256
ttp7
a((I155
I240
t(I173
I240
t(I173
I256
t(I155
I256
ttp8
a((I178
I240
t(I196
I240
t(I196
I256
t(I178
I256
ttp9
a((I202
I241
t(I220
I241
t(I220
I257
t(I202
I257
ttp10
a((I225
I241
t(I243
I241
t(I243
I257
t(I225
I257
ttp11
a((I249
I242
t(I267
I242
t(I267
I258
t(I249
I258
ttp12
a((I273
I242
t(I291
I242
t(I291
I258
t(I273
I258
ttp13
a((I13
I255
t(I31
I255
t(I31
I271
t(I13
I271
ttp14
a((I37
I256
t(I55
I256
t(I55
I272
t(I37
I272
ttp15
a((I60
I256
t(I78
I256
t(I78
I272
t(I60
I272
ttp16
a((I84
I256
t(I102
I256
t(I102
I272
t(I84
I272
ttp17
a((I107
I257
t(I125
I257
t(I125
I273
t(I107
I273
ttp18
a((I131
I257
t(I149
I257
t(I149
I273
t(I131
I273
ttp19
a((I154
I257
t(I172
I257
t(I172
I273
t(I154
I273
ttp20
a((I178
I258
t(I196
I258
t(I196
I274
t(I178
I274
ttp21
a((I202
I258
t(I220
I258
t(I220
I274
t(I202
I274
ttp22
a((I225
I259
t(I243
I259
t(I243
I275
t(I225
I275
ttp23
a((I249
I259
t(I267
I259
t(I267
I275
t(I249
I275
ttp24
a((I272
I259
t(I290
I259
t(I290
I275
t(I272
I275
ttp25
a((I13
I273
t(I31
I273
t(I31
I289
t(I13
I289
ttp26
a((I36
I273
t(I54
I273
t(I54
I289
t(I36
I289
ttp27
a((I60
I273
t(I78
I273
t(I78
I289
t(I60
I289
ttp28
a((I83
I274
t(I101
I274
t(I101
I290
t(I83
I290
ttp29
a((I107
I274
t(I125
I274
t(I125
I290
t(I107
I290
ttp30
a((I130
I275
t(I148
I275
t(I148
I291
t(I130
I291
ttp31
a((I154
I275
t(I172
I275
t(I172
I291
t(I154
I291
ttp32
a((I178
I275
t(I196
I275
t(I196
I291
t(I178
I291
ttp33
a((I201
I276
t(I219
I276
t(I219
I292
t(I201
I292
ttp34
a((I225
I276
t(I243
I276
t(I243
I292
t(I225
I292
ttp35
a((I248
I277
t(I266
I277
t(I266
I293
t(I248
I293
ttp36
a((I272
I277
t(I290
I277
t(I290
I293
t(I272
I293
ttp37
a((I12
I290
t(I30
I290
t(I30
I306
t(I12
I306
ttp38
a((I36
I291
t(I54
I291
t(I54
I307
t(I36
I307
ttp39
a((I59
I291
t(I77
I291
t(I77
I307
t(I59
I307
ttp40
a((I83
I291
t(I101
I291
t(I101
I307
t(I83
I307
ttp41
a((I107
I292
t(I125
I292
t(I125
I308
t(I107
I308
ttp42
a((I130
I292
t(I148
I292
t(I148
I308
t(I130
I308
ttp43
a((I154
I293
t(I172
I293
t(I172
I309
t(I154
I309
ttp44
a((I177
I293
t(I195
I293
t(I195
I309
t(I177
I309
ttp45
a((I201
I293
t(I219
I293
t(I219
I309
t(I201
I309
ttp46
a((I224
I294
t(I242
I294
t(I242
I310
t(I224
I310
ttp47
a((I248
I294
t(I266
I294
t(I266
I310
t(I248
I310
ttp48
a((I271
I295
t(I289
I295
t(I289
I311
t(I271
I311
ttp49
a((I12
I308
t(I30
I308
t(I30
I324
t(I12
I324
ttp50
a((I35
I308
t(I53
I308
t(I53
I324
t(I35
I324
ttp51
a((I59
I309
t(I77
I309
t(I77
I325
t(I59
I325
ttp52
a((I83
I309
t(I101
I309
t(I101
I325
t(I83
I325
ttp53
a((I106
I309
t(I124
I309
t(I124
I325
t(I106
I325
ttp54
a((I130
I310
t(I148
I310
t(I148
I326
t(I130
I326
ttp55
a((I153
I310
t(I171
I310
t(I171
I326
t(I153
I326
ttp56
a((I177
I311
t(I195
I311
t(I195
I327
t(I177
I327
ttp57
a((I200
I311
t(I218
I311
t(I218
I327
t(I200
I327
ttp58
a((I224
I311
t(I242
I311
t(I242
I327
t(I224
I327
ttp59
a((I247
I312
t(I265
I312
t(I265
I328
t(I247
I328
ttp60
a((I271
I312
t(I289
I312
t(I289
I328
t(I271
I328
ttp61
a((I12
I326
t(I30
I326
t(I30
I342
t(I12
I342
ttp62
a((I35
I326
t(I53
I326
t(I53
I342
t(I35
I342
ttp63
a((I59
I326
t(I77
I326
t(I77
I342
t(I59
I342
ttp64
a((I82
I327
t(I100
I327
t(I100
I343
t(I82
I343
ttp65
a((I106
I327
t(I124
I327
t(I124
I343
t(I106
I343
ttp66
a((I129
I327
t(I147
I327
t(I147
I343
t(I129
I343
ttp67
a((I153
I328
t(I171
I328
t(I171
I344
t(I153
I344
ttp68
a((I176
I328
t(I194
I328
t(I194
I344
t(I176
I344
ttp69
a((I200
I329
t(I218
I329
t(I218
I345
t(I200
I345
ttp70
a((I223
I329
t(I241
I329
t(I241
I345
t(I223
I345
ttp71
a((I247
I329
t(I265
I329
t(I265
I345
t(I247
I345
ttp72
a((I271
I330
t(I289
I330
t(I289
I346
t(I271
I346
ttp73
a((I11
I343
t(I29
I343
t(I29
I359
t(I11
I359
ttp74
a((I35
I344
t(I53
I344
t(I53
I360
t(I35
I360
ttp75
a((I58
I344
t(I76
I344
t(I76
I360
t(I58
I360
ttp76
a((I82
I344
t(I100
I344
t(I100
I360
t(I82
I360
ttp77
a((I105
I345
t(I123
I345
t(I123
I361
t(I105
I361
ttp78
a((I129
I345
t(I147
I345
t(I147
I361
t(I129
I361
ttp79
a((I152
I345
t(I170
I345
t(I170
I361
t(I152
I361
ttp80
a((I176
I346
t(I194
I346
t(I194
I362
t(I176
I362
ttp81
a((I200
I346
t(I218
I346
t(I218
I362
t(I200
I362
ttp82
a((I223
I347
t(I241
I347
t(I241
I363
t(I223
I363
ttp83
a((I247
I347
t(I265
I347
t(I265
I363
t(I247
I363
ttp84
a((I270
I347
t(I288
I347
t(I288
I363
t(I270
I363
ttp85
a((I11
I361
t(I29
I361
t(I29
I377
t(I11
I377
ttp86
a((I34
I361
t(I52
I361
t(I52
I377
t(I34
I377
ttp87
a((I58
I362
t(I76
I362
t(I76
I378
t(I58
I378
ttp88
a((I81
I362
t(I99
I362
t(I99
I378
t(I81
I378
ttp89
a((I105
I362
t(I123
I362
t(I123
I378
t(I105
I378
ttp90
a((I128
I363
t(I146
I363
t(I146
I379
t(I128
I379
ttp91
a((I152
I363
t(I170
I363
t(I170
I379
t(I152
I379
ttp92
a((I176
I363
t(I194
I363
t(I194
I379
t(I176
I379
ttp93
a((I199
I364
t(I217
I364
t(I217
I380
t(I199
I380
ttp94
a((I223
I364
t(I241
I364
t(I241
I380
t(I223
I380
ttp95
a((I246
I365
t(I264
I365
t(I264
I381
t(I246
I381
ttp96
a((I270
I365
t(I288
I365
t(I288
I381
t(I270
I381
ttp97
a.(lp1
I1
aI1
aI1
aI1
aI1
aI1
aI1
aI1
aI1
aI1
aI1
aI1
aI1
aI1
aI1
aI1
aI1
aI1
aI1
aI1
aI1
aI1
aI1
aI1
aI1
aI1
aI1
aI1
aI1
aI1
aI1
aI1
aI1
aI1
aI1
aI1
aI1
aI1
aI1
aI1
aI1
aI1
aI1
aI1
aI1
aI1
aI1
aI1
aI1
aI1
aI1
aI1
aI1
aI1
aI1
aI1
aI1
aI1
aI1
aI1
aI1
aI1
aI1
aI1
aI1
aI1
aI1
aI1
aI1
aI1
aI1
aI1
aI1
aI1
aI1
aI1
aI1
aI1
aI1
aI1
aI1
aI1
aI1
aI1
aI1
aI1
aI1
aI1
aI1
aI1
aI1
aI1
aI1
aI1
aI1
aI1
a.