(lp1
((I449
I76
t(I467
I76
t(I467
I92
t(I449
I92
ttp2
a((I472
I76
t(I490
I76
t(I490
I92
t(I472
I92
ttp3
a((I496
I76
t(I514
I76
t(I514
I92
t(I496
I92
ttp4
a((I519
I77
t(I537
I77
t(I537
I93
t(I519
I93
ttp5
a((I448
I93
t(I466
I93
t(I466
I109
t(I448
I109
ttp6
a((I472
I94
t(I490
I94
t(I490
I110
t(I472
I110
ttp7
a((I495
I94
t(I513
I94
t(I513
I110
t(I495
I110
ttp8
a((I519
I94
t(I537
I94
t(I537
I110
t(I519
I110
ttp9
a((I448
I111
t(I466
I111
t(I466
I127
t(I448
I127
ttp10
a((I471
I111
t(I489
I111
t(I489
I127
t(I471
I127
ttp11
a((I495
I112
t(I513
I112
t(I513
I128
t(I495
I128
ttp12
a((I519
I112
t(I537
I112
t(I537
I128
t(I519
I128
ttp13
a((I448
I128
t(I466
I128
t(I466
I144
t(I448
I144
ttp14
a((I471
I129
t(I489
I129
t(I489
I145
t(I471
I145
ttp15
a((I495
I129
t(I513
I129
t(I513
I145
t(I495
I145
ttp16
a((I518
I130
t(I536
I130
t(I536
I146
t(I518
I146
ttp17
a((I447
I146
t(I465
I146
t(I465
I162
t(I447
I162
ttp18
a((I471
I146
t(I489
I146
t(I489
I162
t(I471
I162
ttp19
a((I494
I147
t(I512
I147
t(I512
I163
t(I494
I163
ttp20
a((I518
I147
t(I536
I147
t(I536
I163
t(I518
I163
ttp21
a((I447
I164
t(I465
I164
t(I465
I180
t(I447
I180
ttp22
a((I470
I164
t(I488
I164
t(I488
I180
t(I470
I180
ttp23
a((I494
I164
t(I512
I164
t(I512
I180
t(I494
I180
ttp24
a((I517
I165
t(I535
I165
t(I535
I181
t(I517
I181
ttp25
a((I446
I181
t(I464
I181
t(I464
I197
t(I446
I197
ttp26
a((I470
I182
t(I488
I182
t(I488
I198
t(I470
I198
ttp27
a((I493
I182
t(I511
I182
t(I511
I198
t(I493
I198
ttp28
a((I517
I182
t(I535
I182
t(I535
I198
t(I517
I198
ttp29
a((I446
I199
t(I464
I199
t(I464
I215
t(I446
I215
ttp30
a((I469
I199
t(I487
I199
t(I487
I215
t(I469
I215
ttp31
a((I493
I200
t(I511
I200
t(I511
I216
t(I493
I216
ttp32
a((I517
I200
t(I535
I200
t(I535
I216
t(I517
I216
ttp33
a.(lp1
I1
aI1
aI1
aI1
aI1
aI1
aI1
aI1
aI1
aI1
aI1
aI1
aI1
aI1
aI1
aI1
aI1
aI1
aI1
aI1
aI1
aI1
aI1
aI1
aI1
aI1
aI1
aI1
aI1
aI1
aI1
aI1
a.