(lp1
((I351
I75
t(I369
I75
t(I369
I91
t(I351
I91
ttp2
a((I374
I75
t(I392
I75
t(I392
I91
t(I374
I91
ttp3
a((I398
I75
t(I416
I75
t(I416
I91
t(I398
I91
ttp4
a((I421
I76
t(I439
I76
t(I439
I92
t(I421
I92
ttp5
a((I445
I76
t(I463
I76
t(I463
I92
t(I445
I92
ttp6
a((I350
I92
t(I368
I92
t(I368
I108
t(I350
I108
ttp7
a((I374
I93
t(I392
I93
t(I392
I109
t(I374
I109
ttp8
a((I397
I93
t(I415
I93
t(I415
I109
t(I397
I109
ttp9
a((I421
I93
t(I439
I93
t(I439
I109
t(I421
I109
ttp10
a((I444
I94
t(I462
I94
t(I462
I110
t(I444
I110
ttp11
a((I350
I110
t(I368
I110
t(I368
I126
t(I350
I126
ttp12
a((I373
I110
t(I391
I110
t(I391
I126
t(I373
I126
ttp13
a((I397
I111
t(I415
I111
t(I415
I127
t(I397
I127
ttp14
a((I420
I111
t(I438
I111
t(I438
I127
t(I420
I127
ttp15
a((I444
I111
t(I462
I111
t(I462
I127
t(I444
I127
ttp16
a((I349
I127
t(I367
I127
t(I367
I143
t(I349
I143
ttp17
a((I373
I128
t(I391
I128
t(I391
I144
t(I373
I144
ttp18
a((I396
I128
t(I414
I128
t(I414
I144
t(I396
I144
ttp19
a((I420
I129
t(I438
I129
t(I438
I145
t(I420
I145
ttp20
a((I444
I129
t(I462
I129
t(I462
I145
t(I444
I145
ttp21
a((I349
I145
t(I367
I145
t(I367
I161
t(I349
I161
ttp22
a((I372
I145
t(I390
I145
t(I390
I161
t(I372
I161
ttp23
a((I396
I146
t(I414
I146
t(I414
I162
t(I396
I162
ttp24
a((I420
I146
t(I438
I146
t(I438
I162
t(I420
I162
ttp25
a((I443
I147
t(I461
I147
t(I461
I163
t(I443
I163
ttp26
a((I349
I163
t(I367
I163
t(I367
I179
t(I349
I179
ttp27
a((I372
I163
t(I390
I163
t(I390
I179
t(I372
I179
ttp28
a((I396
I163
t(I414
I163
t(I414
I179
t(I396
I179
ttp29
a((I419
I164
t(I437
I164
t(I437
I180
t(I419
I180
ttp30
a((I443
I164
t(I461
I164
t(I461
I180
t(I443
I180
ttp31
a((I348
I180
t(I366
I180
t(I366
I196
t(I348
I196
ttp32
a((I372
I181
t(I390
I181
t(I390
I197
t(I372
I197
ttp33
a((I395
I181
t(I413
I181
t(I413
I197
t(I395
I197
ttp34
a((I419
I181
t(I437
I181
t(I437
I197
t(I419
I197
ttp35
a((I442
I182
t(I460
I182
t(I460
I198
t(I442
I198
ttp36
a((I348
I198
t(I366
I198
t(I366
I214
t(I348
I214
ttp37
a((I371
I198
t(I389
I198
t(I389
I214
t(I371
I214
ttp38
a((I395
I199
t(I413
I199
t(I413
I215
t(I395
I215
ttp39
a((I418
I199
t(I436
I199
t(I436
I215
t(I418
I215
ttp40
a((I442
I199
t(I460
I199
t(I460
I215
t(I442
I215
ttp41
a.(lp1
I1
aI1
aI1
aI1
aI1
aI1
aI1
aI1
aI1
aI1
aI1
aI1
aI1
aI1
aI1
aI1
aI1
aI1
aI1
aI1
aI1
aI1
aI1
aI1
aI1
aI1
aI1
aI1
aI1
aI1
aI1
aI1
aI1
aI1
aI1
aI1
aI1
aI1
aI1
aI1
a.