(lp1
((I178
I240
t(I196
I240
t(I196
I256
t(I178
I256
ttp2
a((I201
I240
t(I219
I240
t(I219
I256
t(I201
I256
ttp3
a((I225
I240
t(I243
I240
t(I243
I256
t(I225
I256
ttp4
a((I248
I241
t(I266
I241
t(I266
I257
t(I248
I257
ttp5
a((I272
I241
t(I290
I241
t(I290
I257
t(I272
I257
ttp6
a((I177
I257
t(I195
I257
t(I195
I273
t(I177
I273
ttp7
a((I201
I258
t(I219
I258
t(I219
I274
t(I201
I274
ttp8
a((I224
I258
t(I242
I258
t(I242
I274
t(I224
I274
ttp9
a((I248
I258
t(I266
I258
t(I266
I274
t(I248
I274
ttp10
a((I271
I259
t(I289
I259
t(I289
I275
t(I271
I275
ttp11
a((I177
I275
t(I195
I275
t(I195
I291
t(I177
I291
ttp12
a((I200
I275
t(I218
I275
t(I218
I291
t(I200
I291
ttp13
a((I224
I275
t(I242
I275
t(I242
I291
t(I224
I291
ttp14
a((I247
I276
t(I265
I276
t(I265
I292
t(I247
I292
ttp15
a((I271
I276
t(I289
I276
t(I289
I292
t(I271
I292
ttp16
a((I176
I292
t(I194
I292
t(I194
I308
t(I176
I308
ttp17
a((I200
I293
t(I218
I293
t(I218
I309
t(I200
I309
ttp18
a((I223
I293
t(I241
I293
t(I241
I309
t(I223
I309
ttp19
a((I247
I293
t(I265
I293
t(I265
I309
t(I247
I309
ttp20
a((I271
I294
t(I289
I294
t(I289
I310
t(I271
I310
ttp21
a((I176
I310
t(I194
I310
t(I194
I326
t(I176
I326
ttp22
a((I199
I310
t(I217
I310
t(I217
I326
t(I199
I326
ttp23
a((I223
I311
t(I241
I311
t(I241
I327
t(I223
I327
ttp24
a((I247
I311
t(I265
I311
t(I265
I327
t(I247
I327
ttp25
a((I270
I311
t(I288
I311
t(I288
I327
t(I270
I327
ttp26
a((I176
I328
t(I194
I328
t(I194
I344
t(I176
I344
ttp27
a((I199
I328
t(I217
I328
t(I217
I344
t(I199
I344
ttp28
a((I223
I328
t(I241
I328
t(I241
I344
t(I223
I344
ttp29
a((I246
I329
t(I264
I329
t(I264
I345
t(I246
I345
ttp30
a((I270
I329
t(I288
I329
t(I288
I345
t(I270
I345
ttp31
a((I175
I345
t(I193
I345
t(I193
I361
t(I175
I361
ttp32
a((I199
I346
t(I217
I346
t(I217
I362
t(I199
I362
ttp33
a((I222
I346
t(I240
I346
t(I240
I362
t(I222
I362
ttp34
a((I246
I346
t(I264
I346
t(I264
I362
t(I246
I362
ttp35
a((I269
I347
t(I287
I347
t(I287
I363
t(I269
I363
ttp36
a((I175
I363
t(I193
I363
t(I193
I379
t(I175
I379
ttp37
a((I198
I363
t(I216
I363
t(I216
I379
t(I198
I379
ttp38
a((I222
I364
t(I240
I364
t(I240
I380
t(I222
I380
ttp39
a((I245
I364
t(I263
I364
t(I263
I380
t(I245
I380
ttp40
a((I269
I364
t(I287
I364
t(I287
I380
t(I269
I380
ttp41
a.(lp1
I1
aI1
aI1
aI1
aI1
aI1
aI1
aI1
aI1
aI1
aI1
aI1
aI1
aI1
aI1
aI1
aI1
aI1
aI1
aI1
aI1
aI1
aI1
aI1
aI1
aI1
aI1
aI1
aI1
aI1
aI1
aI1
aI1
aI1
aI1
aI1
aI1
aI1
aI1
aI1
a.