(lp1
((I10
I20
t(I30
I20
t(I30
I40
t(I10
I40
ttp2
a((I33
I43
t(I53
I43
t(I53
I43
t(I33
I43
ttp3
a((I33
I66
t(I53
I66
t(I53
I66
t(I33
I66
ttp4
a((I56
I43
t(I76
I43
t(I76
I43
t(I56
I43
ttp5
a((I56
I66
t(I76
I66
t(I76
I66
t(I56
I66
ttp6
a((I79
I43
t(I99
I43
t(I99
I43
t(I79
I43
ttp7
a((I79
I66
t(I99
I66
t(I99
I66
t(I79
I66
ttp8
a.(lp1
I1
aI1
aI1
aI1
aI1
aI1
aI1
a.