(lp1
((I10
I313
t(I35
I313
t(I35
I336
t(I10
I336
ttp2
a((I7
I386
t(I34
I386
t(I34
I405
t(I7
I405
ttp3
a((I7
I459
t(I31
I459
t(I31
I479
t(I7
I479
ttp4
a((I178
I320
t(I197
I320
t(I197
I342
t(I178
I342
ttp5
a.(lp1
I1
aI1
aI1
aI1
aI1
a.