(lp1
((I19
I68
t(I36
I68
t(I36
I86
t(I19
I86
ttp2
a((I40
I68
t(I61
I68
t(I61
I88
t(I40
I88
ttp3
a((I280
I72
t(I296
I72
t(I296
I90
t(I280
I90
ttp4
a((I18
I194
t(I35
I194
t(I35
I211
t(I18
I211
ttp5
a((I274
I197
t(I293
I197
t(I293
I214
t(I274
I214
ttp6
a((I351
I75
t(I370
I75
t(I370
I93
t(I351
I93
ttp7
a((I374
I93
t(I395
I93
t(I395
I110
t(I374
I110
ttp8
a((I610
I77
t(I630
I77
t(I630
I95
t(I610
I95
ttp9
a((I348
I198
t(I370
I198
t(I370
I217
t(I348
I217
ttp10
a((I607
I201
t(I628
I201
t(I628
I220
t(I607
I220
ttp11
a((I14
I234
t(I34
I234
t(I34
I252
t(I14
I252
ttp12
a((I37
I254
t(I57
I254
t(I57
I272
t(I37
I272
ttp13
a((I272
I241
t(I292
I241
t(I292
I258
t(I272
I258
ttp14
a((I9
I358
t(I28
I358
t(I28
I378
t(I9
I378
ttp15
a((I269
I363
t(I289
I363
t(I289
I384
t(I269
I384
ttp16
a((I341
I240
t(I362
I240
t(I362
I260
t(I341
I260
ttp17
a((I600
I243
t(I620
I243
t(I620
I262
t(I600
I262
ttp18
a((I367
I260
t(I385
I260
t(I385
I276
t(I367
I276
ttp19
a((I348
I375
t(I349
I375
t(I349
I375
t(I348
I375
ttp20
a.(lp1
I1
aI1
aI1
aI1
aI1
aI1
aI1
aI1
aI1
aI1
aI1
aI1
aI1
aI1
aI1
aI1
aI1
aI1
aI1
aI1
aI1
a.