(lp1
((I14
I234
t(I32
I234
t(I32
I252
t(I14
I252
ttp2
a((I9
I288
t(I32
I288
t(I32
I306
t(I9
I306
ttp3
a((I8
I359
t(I29
I359
t(I29
I375
t(I8
I375
ttp4
a((I132
I238
t(I149
I238
t(I149
I257
t(I132
I257
ttp5
a((I127
I311
t(I148
I311
t(I148
I326
t(I127
I326
ttp6
a((I125
I361
t(I147
I361
t(I147
I379
t(I125
I379
ttp7
a((I177
I239
t(I199
I239
t(I199
I259
t(I177
I259
ttp8
a((I175
I291
t(I197
I291
t(I197
I310
t(I175
I310
ttp9
a((I173
I361
t(I193
I361
t(I193
I383
t(I173
I383
ttp10
a((I270
I240
t(I290
I240
t(I290
I259
t(I270
I259
ttp11
a((I270
I311
t(I289
I311
t(I289
I331
t(I270
I331
ttp12
a((I266
I364
t(I289
I364
t(I289
I384
t(I266
I384
ttp13
a((I351
I74
t(I373
I74
t(I373
I94
t(I351
I94
ttp14
a((I351
I126
t(I371
I126
t(I371
I144
t(I351
I144
ttp15
a((I350
I197
t(I372
I197
t(I372
I217
t(I350
I217
ttp16
a((I447
I75
t(I465
I75
t(I465
I94
t(I447
I94
ttp17
a((I446
I145
t(I464
I145
t(I464
I164
t(I446
I164
ttp18
a((I441
I197
t(I462
I197
t(I462
I218
t(I441
I218
ttp19
a((I517
I74
t(I537
I74
t(I537
I95
t(I517
I95
ttp20
a((I516
I131
t(I534
I131
t(I534
I148
t(I516
I148
ttp21
a((I513
I200
t(I533
I200
t(I533
I218
t(I513
I218
ttp22
a((I611
I77
t(I631
I77
t(I631
I95
t(I611
I95
ttp23
a((I610
I113
t(I629
I113
t(I629
I135
t(I610
I135
ttp24
a((I609
I149
t(I630
I149
t(I630
I167
t(I609
I167
ttp25
a((I606
I185
t(I629
I185
t(I629
I205
t(I606
I205
ttp26
a((I61
I235
t(I81
I235
t(I81
I254
t(I61
I254
ttp27
a((I82
I273
t(I101
I273
t(I101
I290
t(I82
I290
ttp28
a((I57
I306
t(I77
I306
t(I77
I324
t(I57
I324
ttp29
a((I78
I342
t(I99
I342
t(I99
I360
t(I78
I360
ttp30
a((I400
I75
t(I418
I75
t(I418
I94
t(I400
I94
ttp31
a((I563
I96
t(I584
I96
t(I584
I113
t(I563
I113
ttp32
a((I560
I166
t(I583
I166
t(I583
I186
t(I560
I186
ttp33
a.(lp1
I1
aI1
aI1
aI1
aI1
aI1
aI1
aI1
aI1
aI1
aI1
aI1
aI1
aI1
aI1
aI1
aI1
aI1
aI1
aI1
aI1
aI1
aI1
aI1
aI1
aI1
aI1
aI1
aI1
aI1
aI1
aI1
aI1
aI1
aI1
aI1
aI1
aI1
a.