(lp1
((I163
I70
t(I181
I70
t(I181
I86
t(I163
I86
ttp2
a((I186
I70
t(I204
I70
t(I204
I86
t(I186
I86
ttp3
a((I210
I71
t(I228
I71
t(I228
I87
t(I210
I87
ttp4
a((I233
I71
t(I251
I71
t(I251
I87
t(I233
I87
ttp5
a((I257
I72
t(I275
I72
t(I275
I88
t(I257
I88
ttp6
a((I280
I72
t(I298
I72
t(I298
I88
t(I280
I88
ttp7
a((I162
I87
t(I180
I87
t(I180
I103
t(I162
I103
ttp8
a((I185
I88
t(I203
I88
t(I203
I104
t(I185
I104
ttp9
a((I209
I88
t(I227
I88
t(I227
I104
t(I209
I104
ttp10
a((I233
I89
t(I251
I89
t(I251
I105
t(I233
I105
ttp11
a((I256
I89
t(I274
I89
t(I274
I105
t(I256
I105
ttp12
a((I280
I90
t(I298
I90
t(I298
I106
t(I280
I106
ttp13
a((I161
I105
t(I179
I105
t(I179
I121
t(I161
I121
ttp14
a((I185
I105
t(I203
I105
t(I203
I121
t(I185
I121
ttp15
a((I208
I106
t(I226
I106
t(I226
I122
t(I208
I122
ttp16
a((I232
I106
t(I250
I106
t(I250
I122
t(I232
I122
ttp17
a((I256
I107
t(I274
I107
t(I274
I123
t(I256
I123
ttp18
a((I279
I107
t(I297
I107
t(I297
I123
t(I279
I123
ttp19
a((I161
I122
t(I179
I122
t(I179
I138
t(I161
I138
ttp20
a((I184
I123
t(I202
I123
t(I202
I139
t(I184
I139
ttp21
a((I208
I123
t(I226
I123
t(I226
I139
t(I208
I139
ttp22
a((I231
I124
t(I249
I124
t(I249
I140
t(I231
I140
ttp23
a((I255
I124
t(I273
I124
t(I273
I140
t(I255
I140
ttp24
a((I278
I125
t(I296
I125
t(I296
I141
t(I278
I141
ttp25
a((I160
I140
t(I178
I140
t(I178
I156
t(I160
I156
ttp26
a((I184
I140
t(I202
I140
t(I202
I156
t(I184
I156
ttp27
a((I207
I141
t(I225
I141
t(I225
I157
t(I207
I157
ttp28
a((I231
I141
t(I249
I141
t(I249
I157
t(I231
I157
ttp29
a((I254
I142
t(I272
I142
t(I272
I158
t(I254
I158
ttp30
a((I278
I142
t(I296
I142
t(I296
I158
t(I278
I158
ttp31
a((I160
I158
t(I178
I158
t(I178
I174
t(I160
I174
ttp32
a((I183
I158
t(I201
I158
t(I201
I174
t(I183
I174
ttp33
a((I207
I159
t(I225
I159
t(I225
I175
t(I207
I175
ttp34
a((I230
I159
t(I248
I159
t(I248
I175
t(I230
I175
ttp35
a((I254
I160
t(I272
I160
t(I272
I176
t(I254
I176
ttp36
a((I277
I160
t(I295
I160
t(I295
I176
t(I277
I176
ttp37
a((I159
I175
t(I177
I175
t(I177
I191
t(I159
I191
ttp38
a((I182
I176
t(I200
I176
t(I200
I192
t(I182
I192
ttp39
a((I206
I176
t(I224
I176
t(I224
I192
t(I206
I192
ttp40
a((I230
I177
t(I248
I177
t(I248
I193
t(I230
I193
ttp41
a((I253
I177
t(I271
I177
t(I271
I193
t(I253
I193
ttp42
a((I277
I178
t(I295
I178
t(I295
I194
t(I277
I194
ttp43
a((I158
I193
t(I176
I193
t(I176
I209
t(I158
I209
ttp44
a((I182
I193
t(I200
I193
t(I200
I209
t(I182
I209
ttp45
a((I205
I194
t(I223
I194
t(I223
I210
t(I205
I210
ttp46
a((I229
I194
t(I247
I194
t(I247
I210
t(I229
I210
ttp47
a((I253
I195
t(I271
I195
t(I271
I211
t(I253
I211
ttp48
a((I276
I195
t(I294
I195
t(I294
I211
t(I276
I211
ttp49
a.(lp1
I1
aI1
aI1
aI1
aI1
aI1
aI1
aI1
aI1
aI1
aI1
aI1
aI1
aI1
aI1
aI1
aI1
aI1
aI1
aI1
aI1
aI1
aI1
aI1
aI1
aI1
aI1
aI1
aI1
aI1
aI1
aI1
aI1
aI1
aI1
aI1
aI1
aI1
aI1
aI1
aI1
aI1
aI1
aI1
aI1
aI1
aI1
aI1
a.