(lp1
((I14
I238
t(I32
I238
t(I32
I254
t(I14
I254
ttp2
a((I37
I238
t(I55
I238
t(I55
I254
t(I37
I254
ttp3
a((I60
I239
t(I78
I239
t(I78
I255
t(I60
I255
ttp4
a((I83
I239
t(I101
I239
t(I101
I255
t(I83
I255
ttp5
a((I106
I240
t(I124
I240
t(I124
I256
t(I106
I256
ttp6
a((I129
I240
t(I147
I240
t(I147
I256
t(I129
I256
ttp7
a((I152
I241
t(I170
I241
t(I170
I257
t(I152
I257
ttp8
a((I175
I241
t(I193
I241
t(I193
I257
t(I175
I257
ttp9
a((I198
I242
t(I216
I242
t(I216
I258
t(I198
I258
ttp10
a((I221
I242
t(I239
I242
t(I239
I258
t(I221
I258
ttp11
a((I244
I243
t(I263
I243
t(I263
I259
t(I244
I259
ttp12
a((I268
I243
t(I286
I243
t(I286
I259
t(I268
I259
ttp13
a((I13
I255
t(I31
I255
t(I31
I271
t(I13
I271
ttp14
a((I36
I256
t(I54
I256
t(I54
I272
t(I36
I272
ttp15
a((I59
I256
t(I77
I256
t(I77
I272
t(I59
I272
ttp16
a((I82
I257
t(I100
I257
t(I100
I273
t(I82
I273
ttp17
a((I106
I257
t(I124
I257
t(I124
I273
t(I106
I273
ttp18
a((I129
I258
t(I147
I258
t(I147
I274
t(I129
I274
ttp19
a((I152
I258
t(I170
I258
t(I170
I274
t(I152
I274
ttp20
a((I175
I259
t(I193
I259
t(I193
I275
t(I175
I275
ttp21
a((I198
I259
t(I216
I259
t(I216
I275
t(I198
I275
ttp22
a((I221
I260
t(I239
I260
t(I239
I276
t(I221
I276
ttp23
a((I244
I260
t(I262
I260
t(I262
I276
t(I244
I276
ttp24
a((I267
I261
t(I285
I261
t(I285
I277
t(I267
I277
ttp25
a((I13
I273
t(I31
I273
t(I31
I289
t(I13
I289
ttp26
a((I36
I273
t(I54
I273
t(I54
I289
t(I36
I289
ttp27
a((I59
I274
t(I77
I274
t(I77
I290
t(I59
I290
ttp28
a((I82
I274
t(I100
I274
t(I100
I290
t(I82
I290
ttp29
a((I105
I275
t(I123
I275
t(I123
I291
t(I105
I291
ttp30
a((I128
I275
t(I146
I275
t(I146
I291
t(I128
I291
ttp31
a((I151
I276
t(I169
I276
t(I169
I292
t(I151
I292
ttp32
a((I174
I276
t(I192
I276
t(I192
I292
t(I174
I292
ttp33
a((I197
I277
t(I215
I277
t(I215
I293
t(I197
I293
ttp34
a((I221
I277
t(I239
I277
t(I239
I293
t(I221
I293
ttp35
a((I244
I278
t(I262
I278
t(I262
I294
t(I244
I294
ttp36
a((I267
I278
t(I285
I278
t(I285
I294
t(I267
I294
ttp37
a((I12
I290
t(I30
I290
t(I30
I306
t(I12
I306
ttp38
a((I35
I291
t(I53
I291
t(I53
I307
t(I35
I307
ttp39
a((I59
I291
t(I77
I291
t(I77
I307
t(I59
I307
ttp40
a((I82
I292
t(I100
I292
t(I100
I308
t(I82
I308
ttp41
a((I105
I292
t(I123
I292
t(I123
I308
t(I105
I308
ttp42
a((I128
I293
t(I146
I293
t(I146
I309
t(I128
I309
ttp43
a((I151
I293
t(I169
I293
t(I169
I309
t(I151
I309
ttp44
a((I174
I294
t(I192
I294
t(I192
I310
t(I174
I310
ttp45
a((I197
I294
t(I215
I294
t(I215
I310
t(I197
I310
ttp46
a((I220
I295
t(I238
I295
t(I238
I311
t(I220
I311
ttp47
a((I243
I295
t(I261
I295
t(I261
I311
t(I243
I311
ttp48
a((I266
I296
t(I284
I296
t(I284
I312
t(I266
I312
ttp49
a((I12
I308
t(I30
I308
t(I30
I324
t(I12
I324
ttp50
a((I35
I308
t(I53
I308
t(I53
I324
t(I35
I324
ttp51
a((I58
I309
t(I76
I309
t(I76
I325
t(I58
I325
ttp52
a((I81
I309
t(I99
I309
t(I99
I325
t(I81
I325
ttp53
a((I104
I310
t(I122
I310
t(I122
I326
t(I104
I326
ttp54
a((I127
I310
t(I145
I310
t(I145
I326
t(I127
I326
ttp55
a((I150
I311
t(I168
I311
t(I168
I327
t(I150
I327
ttp56
a((I174
I311
t(I192
I311
t(I192
I327
t(I174
I327
ttp57
a((I197
I312
t(I215
I312
t(I215
I328
t(I197
I328
ttp58
a((I220
I312
t(I238
I312
t(I238
I328
t(I220
I328
ttp59
a((I243
I313
t(I261
I313
t(I261
I329
t(I243
I329
ttp60
a((I266
I313
t(I284
I313
t(I284
I329
t(I266
I329
ttp61
a((I12
I325
t(I30
I325
t(I30
I341
t(I12
I341
ttp62
a((I35
I326
t(I53
I326
t(I53
I342
t(I35
I342
ttp63
a((I58
I326
t(I76
I326
t(I76
I342
t(I58
I342
ttp64
a((I81
I327
t(I99
I327
t(I99
I343
t(I81
I343
ttp65
a((I104
I327
t(I122
I327
t(I122
I343
t(I104
I343
ttp66
a((I127
I328
t(I145
I328
t(I145
I344
t(I127
I344
ttp67
a((I150
I328
t(I168
I328
t(I168
I344
t(I150
I344
ttp68
a((I173
I329
t(I191
I329
t(I191
I345
t(I173
I345
ttp69
a((I196
I329
t(I214
I329
t(I214
I345
t(I196
I345
ttp70
a((I219
I330
t(I237
I330
t(I237
I346
t(I219
I346
ttp71
a((I242
I330
t(I261
I330
t(I261
I346
t(I242
I346
ttp72
a((I266
I331
t(I284
I331
t(I284
I347
t(I266
I347
ttp73
a((I11
I343
t(I29
I343
t(I29
I359
t(I11
I359
ttp74
a((I34
I343
t(I52
I343
t(I52
I359
t(I34
I359
ttp75
a((I57
I344
t(I75
I344
t(I75
I360
t(I57
I360
ttp76
a((I80
I344
t(I98
I344
t(I98
I360
t(I80
I360
ttp77
a((I104
I345
t(I122
I345
t(I122
I361
t(I104
I361
ttp78
a((I127
I345
t(I145
I345
t(I145
I361
t(I127
I361
ttp79
a((I150
I346
t(I168
I346
t(I168
I362
t(I150
I362
ttp80
a((I173
I346
t(I191
I346
t(I191
I362
t(I173
I362
ttp81
a((I196
I347
t(I214
I347
t(I214
I363
t(I196
I363
ttp82
a((I219
I347
t(I237
I347
t(I237
I363
t(I219
I363
ttp83
a((I242
I348
t(I260
I348
t(I260
I364
t(I242
I364
ttp84
a((I265
I348
t(I283
I348
t(I283
I364
t(I265
I364
ttp85
a((I11
I360
t(I29
I360
t(I29
I376
t(I11
I376
ttp86
a((I34
I361
t(I52
I361
t(I52
I377
t(I34
I377
ttp87
a((I57
I361
t(I75
I361
t(I75
I377
t(I57
I377
ttp88
a((I80
I362
t(I98
I362
t(I98
I378
t(I80
I378
ttp89
a((I103
I362
t(I121
I362
t(I121
I378
t(I103
I378
ttp90
a((I126
I363
t(I144
I363
t(I144
I379
t(I126
I379
ttp91
a((I149
I363
t(I167
I363
t(I167
I379
t(I149
I379
ttp92
a((I172
I364
t(I190
I364
t(I190
I380
t(I172
I380
ttp93
a((I195
I364
t(I213
I364
t(I213
I380
t(I195
I380
ttp94
a((I219
I365
t(I237
I365
t(I237
I381
t(I219
I381
ttp95
a((I242
I365
t(I260
I365
t(I260
I381
t(I242
I381
ttp96
a((I265
I366
t(I283
I366
t(I283
I382
t(I265
I382
ttp97
a.(lp1
I1
aI1
aI1
aI1
aI1
aI1
aI1
aI1
aI1
aI1
aI1
aI1
aI1
aI1
aI1
aI1
aI1
aI1
aI1
aI1
aI1
aI1
aI1
aI1
aI1
aI1
aI1
aI1
aI1
aI1
aI1
aI1
aI1
aI1
aI1
aI1
aI1
aI1
aI1
aI1
aI1
aI1
aI1
aI1
aI1
aI1
aI1
aI1
aI1
aI1
aI1
aI1
aI1
aI1
aI1
aI1
aI1
aI1
aI1
aI1
aI1
aI1
aI1
aI1
aI1
aI1
aI1
aI1
aI1
aI1
aI1
aI1
aI1
aI1
aI1
aI1
aI1
aI1
aI1
aI1
aI1
aI1
aI1
aI1
aI1
aI1
aI1
aI1
aI1
aI1
aI1
aI1
aI1
aI1
aI1
aI1
a.