(lp1
((I14
I235
t(I33
I235
t(I33
I253
t(I14
I253
ttp2
a((I13
I254
t(I33
I254
t(I33
I271
t(I13
I271
ttp3
a((I13
I271
t(I31
I271
t(I31
I287
t(I13
I287
ttp4
a((I13
I287
t(I31
I287
t(I31
I306
t(I13
I306
ttp5
a((I9
I305
t(I29
I305
t(I29
I324
t(I9
I324
ttp6
a((I9
I324
t(I28
I324
t(I28
I341
t(I9
I341
ttp7
a((I9
I341
t(I25
I341
t(I25
I360
t(I9
I360
ttp8
a((I9
I360
t(I27
I360
t(I27
I378
t(I9
I378
ttp9
a((I249
I239
t(I267
I239
t(I267
I258
t(I249
I258
ttp10
a((I248
I258
t(I267
I258
t(I267
I277
t(I248
I277
ttp11
a((I248
I280
t(I262
I280
t(I262
I294
t(I248
I294
ttp12
a((I248
I296
t(I262
I296
t(I262
I312
t(I248
I312
ttp13
a((I246
I311
t(I265
I311
t(I265
I330
t(I246
I330
ttp14
a((I244
I331
t(I265
I331
t(I265
I347
t(I244
I347
ttp15
a((I245
I348
t(I263
I348
t(I263
I362
t(I245
I362
ttp16
a((I244
I365
t(I260
I365
t(I260
I384
t(I244
I384
ttp17
a((I271
I240
t(I291
I240
t(I291
I257
t(I271
I257
ttp18
a((I272
I260
t(I291
I260
t(I291
I276
t(I272
I276
ttp19
a((I271
I278
t(I291
I278
t(I291
I294
t(I271
I294
ttp20
a((I270
I297
t(I290
I297
t(I290
I314
t(I270
I314
ttp21
a((I269
I311
t(I288
I311
t(I288
I328
t(I269
I328
ttp22
a((I270
I331
t(I288
I331
t(I288
I346
t(I270
I346
ttp23
a((I268
I347
t(I290
I347
t(I290
I364
t(I268
I364
ttp24
a((I267
I364
t(I286
I364
t(I286
I383
t(I267
I383
ttp25
a((I588
I78
t(I606
I78
t(I606
I97
t(I588
I97
ttp26
a((I587
I97
t(I605
I97
t(I605
I114
t(I587
I114
ttp27
a((I587
I116
t(I606
I116
t(I606
I132
t(I587
I132
ttp28
a((I586
I150
t(I604
I150
t(I604
I166
t(I586
I166
ttp29
a((I584
I167
t(I604
I167
t(I604
I184
t(I584
I184
ttp30
a((I583
I186
t(I604
I186
t(I604
I201
t(I583
I201
ttp31
a((I584
I202
t(I601
I202
t(I601
I220
t(I584
I220
ttp32
a((I611
I77
t(I628
I77
t(I628
I98
t(I611
I98
ttp33
a((I611
I99
t(I632
I99
t(I632
I113
t(I611
I113
ttp34
a((I612
I114
t(I630
I114
t(I630
I133
t(I612
I133
ttp35
a((I611
I135
t(I628
I135
t(I628
I151
t(I611
I151
ttp36
a((I587
I133
t(I609
I133
t(I609
I149
t(I587
I149
ttp37
a((I608
I150
t(I625
I150
t(I625
I168
t(I608
I168
ttp38
a((I608
I169
t(I628
I169
t(I628
I185
t(I608
I185
ttp39
a((I608
I187
t(I628
I187
t(I628
I201
t(I608
I201
ttp40
a((I608
I203
t(I625
I203
t(I625
I221
t(I608
I221
ttp41
a.(lp1
I1
aI1
aI1
aI1
aI1
aI1
aI1
aI1
aI1
aI1
aI1
aI1
aI1
aI1
aI1
aI1
aI1
aI1
aI1
aI1
aI1
aI1
aI1
aI1
aI1
aI1
aI1
aI1
aI1
aI1
aI1
aI1
aI1
aI1
aI1
aI1
aI1
aI1
aI1
aI1
a.