(lp1
((I353
I75
t(I371
I75
t(I371
I91
t(I353
I91
ttp2
a((I376
I75
t(I394
I75
t(I394
I91
t(I376
I91
ttp3
a((I399
I76
t(I417
I76
t(I417
I92
t(I399
I92
ttp4
a((I422
I76
t(I440
I76
t(I440
I92
t(I422
I92
ttp5
a((I445
I77
t(I463
I77
t(I463
I93
t(I445
I93
ttp6
a((I468
I77
t(I486
I77
t(I486
I93
t(I468
I93
ttp7
a((I491
I78
t(I509
I78
t(I509
I94
t(I491
I94
ttp8
a((I514
I78
t(I532
I78
t(I532
I94
t(I514
I94
ttp9
a((I537
I79
t(I555
I79
t(I555
I95
t(I537
I95
ttp10
a((I560
I79
t(I578
I79
t(I578
I95
t(I560
I95
ttp11
a((I584
I80
t(I602
I80
t(I602
I96
t(I584
I96
ttp12
a((I607
I80
t(I625
I80
t(I625
I96
t(I607
I96
ttp13
a((I352
I92
t(I370
I92
t(I370
I108
t(I352
I108
ttp14
a((I375
I93
t(I393
I93
t(I393
I109
t(I375
I109
ttp15
a((I398
I93
t(I416
I93
t(I416
I109
t(I398
I109
ttp16
a((I422
I94
t(I440
I94
t(I440
I110
t(I422
I110
ttp17
a((I445
I94
t(I463
I94
t(I463
I110
t(I445
I110
ttp18
a((I468
I95
t(I486
I95
t(I486
I111
t(I468
I111
ttp19
a((I491
I95
t(I509
I95
t(I509
I111
t(I491
I111
ttp20
a((I514
I96
t(I532
I96
t(I532
I112
t(I514
I112
ttp21
a((I537
I96
t(I555
I96
t(I555
I112
t(I537
I112
ttp22
a((I560
I97
t(I578
I97
t(I578
I113
t(I560
I113
ttp23
a((I583
I97
t(I601
I97
t(I601
I113
t(I583
I113
ttp24
a((I606
I98
t(I624
I98
t(I624
I114
t(I606
I114
ttp25
a((I352
I110
t(I370
I110
t(I370
I126
t(I352
I126
ttp26
a((I375
I110
t(I393
I110
t(I393
I126
t(I375
I126
ttp27
a((I398
I111
t(I416
I111
t(I416
I127
t(I398
I127
ttp28
a((I421
I111
t(I439
I111
t(I439
I127
t(I421
I127
ttp29
a((I444
I112
t(I462
I112
t(I462
I128
t(I444
I128
ttp30
a((I467
I112
t(I485
I112
t(I485
I128
t(I467
I128
ttp31
a((I491
I113
t(I509
I113
t(I509
I129
t(I491
I129
ttp32
a((I514
I113
t(I532
I113
t(I532
I129
t(I514
I129
ttp33
a((I537
I114
t(I555
I114
t(I555
I130
t(I537
I130
ttp34
a((I560
I114
t(I578
I114
t(I578
I130
t(I560
I130
ttp35
a((I583
I115
t(I601
I115
t(I601
I131
t(I583
I131
ttp36
a((I606
I115
t(I624
I115
t(I624
I131
t(I606
I131
ttp37
a((I352
I127
t(I370
I127
t(I370
I143
t(I352
I143
ttp38
a((I375
I128
t(I393
I128
t(I393
I144
t(I375
I144
ttp39
a((I398
I128
t(I416
I128
t(I416
I144
t(I398
I144
ttp40
a((I421
I129
t(I439
I129
t(I439
I145
t(I421
I145
ttp41
a((I444
I129
t(I462
I129
t(I462
I145
t(I444
I145
ttp42
a((I467
I130
t(I485
I130
t(I485
I146
t(I467
I146
ttp43
a((I490
I130
t(I508
I130
t(I508
I146
t(I490
I146
ttp44
a((I513
I131
t(I531
I131
t(I531
I147
t(I513
I147
ttp45
a((I536
I131
t(I554
I131
t(I554
I147
t(I536
I147
ttp46
a((I560
I132
t(I578
I132
t(I578
I148
t(I560
I148
ttp47
a((I583
I132
t(I601
I132
t(I601
I148
t(I583
I148
ttp48
a((I606
I133
t(I624
I133
t(I624
I149
t(I606
I149
ttp49
a((I351
I145
t(I369
I145
t(I369
I161
t(I351
I161
ttp50
a((I374
I145
t(I392
I145
t(I392
I161
t(I374
I161
ttp51
a((I398
I146
t(I416
I146
t(I416
I162
t(I398
I162
ttp52
a((I421
I146
t(I439
I146
t(I439
I162
t(I421
I162
ttp53
a((I444
I147
t(I462
I147
t(I462
I163
t(I444
I163
ttp54
a((I467
I147
t(I485
I147
t(I485
I163
t(I467
I163
ttp55
a((I490
I148
t(I508
I148
t(I508
I164
t(I490
I164
ttp56
a((I513
I148
t(I531
I148
t(I531
I164
t(I513
I164
ttp57
a((I536
I149
t(I554
I149
t(I554
I165
t(I536
I165
ttp58
a((I559
I149
t(I577
I149
t(I577
I165
t(I559
I165
ttp59
a((I582
I150
t(I600
I150
t(I600
I166
t(I582
I166
ttp60
a((I605
I150
t(I623
I150
t(I623
I166
t(I605
I166
ttp61
a((I351
I162
t(I369
I162
t(I369
I178
t(I351
I178
ttp62
a((I374
I163
t(I392
I163
t(I392
I179
t(I374
I179
ttp63
a((I397
I163
t(I415
I163
t(I415
I179
t(I397
I179
ttp64
a((I420
I164
t(I438
I164
t(I438
I180
t(I420
I180
ttp65
a((I443
I164
t(I461
I164
t(I461
I180
t(I443
I180
ttp66
a((I467
I165
t(I485
I165
t(I485
I181
t(I467
I181
ttp67
a((I490
I165
t(I508
I165
t(I508
I181
t(I490
I181
ttp68
a((I513
I166
t(I531
I166
t(I531
I182
t(I513
I182
ttp69
a((I536
I166
t(I554
I166
t(I554
I182
t(I536
I182
ttp70
a((I559
I167
t(I577
I167
t(I577
I183
t(I559
I183
ttp71
a((I582
I167
t(I600
I167
t(I600
I183
t(I582
I183
ttp72
a((I605
I168
t(I623
I168
t(I623
I184
t(I605
I184
ttp73
a((I351
I180
t(I369
I180
t(I369
I196
t(I351
I196
ttp74
a((I374
I180
t(I392
I180
t(I392
I196
t(I374
I196
ttp75
a((I397
I181
t(I415
I181
t(I415
I197
t(I397
I197
ttp76
a((I420
I181
t(I438
I181
t(I438
I197
t(I420
I197
ttp77
a((I443
I182
t(I461
I182
t(I461
I198
t(I443
I198
ttp78
a((I466
I182
t(I484
I182
t(I484
I198
t(I466
I198
ttp79
a((I489
I183
t(I507
I183
t(I507
I199
t(I489
I199
ttp80
a((I512
I183
t(I530
I183
t(I530
I199
t(I512
I199
ttp81
a((I536
I184
t(I554
I184
t(I554
I200
t(I536
I200
ttp82
a((I559
I184
t(I577
I184
t(I577
I200
t(I559
I200
ttp83
a((I582
I185
t(I600
I185
t(I600
I201
t(I582
I201
ttp84
a((I605
I185
t(I623
I185
t(I623
I201
t(I605
I201
ttp85
a((I350
I197
t(I368
I197
t(I368
I213
t(I350
I213
ttp86
a((I374
I198
t(I392
I198
t(I392
I214
t(I374
I214
ttp87
a((I397
I198
t(I415
I198
t(I415
I214
t(I397
I214
ttp88
a((I420
I199
t(I438
I199
t(I438
I215
t(I420
I215
ttp89
a((I443
I199
t(I461
I199
t(I461
I215
t(I443
I215
ttp90
a((I466
I200
t(I484
I200
t(I484
I216
t(I466
I216
ttp91
a((I489
I200
t(I507
I200
t(I507
I216
t(I489
I216
ttp92
a((I512
I201
t(I530
I201
t(I530
I217
t(I512
I217
ttp93
a((I535
I201
t(I553
I201
t(I553
I217
t(I535
I217
ttp94
a((I558
I202
t(I576
I202
t(I576
I218
t(I558
I218
ttp95
a((I581
I202
t(I599
I202
t(I599
I218
t(I581
I218
ttp96
a((I605
I203
t(I623
I203
t(I623
I219
t(I605
I219
ttp97
a.(lp1
I1
aI1
aI1
aI1
aI1
aI1
aI1
aI1
aI1
aI1
aI1
aI1
aI1
aI1
aI1
aI1
aI1
aI1
aI1
aI1
aI1
aI1
aI1
aI1
aI1
aI1
aI1
aI1
aI1
aI1
aI1
aI1
aI1
aI1
aI1
aI1
aI1
aI1
aI1
aI1
aI1
aI1
aI1
aI1
aI1
aI1
aI1
aI1
aI1
aI1
aI1
aI1
aI1
aI1
aI1
aI1
aI1
aI1
aI1
aI1
aI1
aI1
aI1
aI1
aI1
aI1
aI1
aI1
aI1
aI1
aI1
aI1
aI1
aI1
aI1
aI1
aI1
aI1
aI1
aI1
aI1
aI1
aI1
aI1
aI1
aI1
aI1
aI1
aI1
aI1
aI1
aI1
aI1
aI1
aI1
aI1
a.